; ModuleID = '16/1437.c'
source_filename = "16/1437.c"
target datalayout = "e-m:e-p270:32:32-p271:32:32-p272:64:64-i64:64-f80:128-n8:16:32:64-S128"
target triple = "x86_64-pc-linux-gnu"

@.str = private unnamed_addr constant [3 x i8] c"%d\00", align 1

; Function Attrs: noinline nounwind uwtable
define dso_local i32 @main() #0 {
  %1 = alloca i32, align 4
  %2 = alloca i32, align 4
  %3 = alloca i32, align 4
  %4 = alloca i32, align 4
  %5 = alloca i32, align 4
  %6 = alloca i32, align 4
  %7 = alloca i32, align 4
  store i32 0, i32* %1, align 4
  %8 = call i32 (i8*, ...) @__isoc99_scanf(i8* getelementptr inbounds ([3 x i8], [3 x i8]* @.str, i64 0, i64 0), i32* %2)
  br label %9

9:                                                ; preds = %12, %0
  %10 = load i32, i32* %2, align 4
  %11 = icmp ne i32 %10, 0
  br i1 %11, label %12, label %19

12:                                               ; preds = %9
  %13 = load i32, i32* %2, align 4
  %14 = srem i32 %13, 10
  store i32 %14, i32* %3, align 4
  %15 = load i32, i32* %3, align 4
  %16 = call i32 (i8*, ...) @printf(i8* getelementptr inbounds ([3 x i8], [3 x i8]* @.str, i64 0, i64 0), i32 %15)
  %17 = load i32, i32* %2, align 4
  %18 = sdiv i32 %17, 10
  store i32 %18, i32* %2, align 4
  br label %9

19:                                               ; preds = %9
  ret i32 0
}

declare dso_local i32 @__isoc99_scanf(i8*, ...) #1

declare dso_local i32 @printf(i8*, ...) #1


!llvm.module.flags = !{!0}
!llvm.ident = !{!1}

!0 = !{i32 1, !"wchar_size", i32 4}
!1 = !{!"clang version 10.0.0-4ubuntu1 "}
